target datalayout = "e-m:e-p270:32:32-p271:32:32-p272:64:64-i64:64-i128:128-f80:128-n8:16:32:64-S128"
target triple = "x86_64-pc-linux-gnu"

%"class.boost::urls::url_view_base" = type { [8 x i8], %"struct.boost::urls::detail::url_impl", ptr }
%"struct.boost::urls::detail::url_impl" = type <{ ptr, [8 x i64], [7 x i64], i64, i64, [16 x i8], i16, [2 x i8], i32, i16, i8, [5 x i8] }>
%"struct.boost::urls::encoding_opts" = type { i8, i8, i8 }
%"class.boost::urls::detail::query_ref" = type <{ ptr, ptr, i64, i64, i64, i8, [7 x i8] }>
%"class.boost::urls::params_ref" = type { %"class.boost::urls::params_base.base", ptr }
%"class.boost::urls::params_base.base" = type { %"class.boost::urls::detail::query_ref", %"struct.boost::urls::encoding_opts" }

; Function Attrs: inlinehint mustprogress nounwind uwtable
define linkonce_odr hidden void @_ZN5boost4urls10params_refC2ERNS0_8url_baseENS0_13encoding_optsE(ptr noundef nonnull align 8 dereferenceable(64) %0, ptr noundef nonnull align 8 dereferenceable(216) %1, i24 %2) unnamed_addr #1 comdat align 2 {
  %4 = alloca %"struct.boost::urls::encoding_opts", align 1
  %5 = alloca ptr, align 8
  %6 = alloca ptr, align 8
  %7 = alloca %"class.boost::urls::detail::query_ref", align 8
  %8 = alloca %"struct.boost::urls::encoding_opts", align 1
  %9 = alloca i24, align 4
  store i24 %2, ptr %4, align 1
  store ptr %0, ptr %5, align 8, !tbaa !7
  store ptr %1, ptr %6, align 8, !tbaa !7
  %10 = load ptr, ptr %5, align 8
  call void @llvm.lifetime.start.p0(i64 48, ptr %7) #9
  %11 = load ptr, ptr %6, align 8, !tbaa !7
  %12 = getelementptr inbounds i8, ptr %11, i64 8
  %13 = getelementptr inbounds nuw %"class.boost::urls::url_view_base", ptr %12, i32 0, i32 1
  call void @_ZN5boost4urls6detail9query_refC1ERKNS1_8url_implE(ptr noundef nonnull align 8 dereferenceable(41) %7, ptr noundef nonnull align 8 dereferenceable(171) %13) #9
  call void @llvm.memcpy.p0.p0.i64(ptr align 1 %8, ptr align 1 %4, i64 3, i1 false), !tbaa.struct !64
  call void @llvm.memcpy.p0.p0.i64(ptr align 4 %9, ptr align 1 %8, i64 3, i1 false)
  %14 = load i24, ptr %9, align 4
  call void @_ZN5boost4urls11params_baseC2ERKNS0_6detail9query_refENS0_13encoding_optsE(ptr noundef nonnull align 8 dereferenceable(51) %10, ptr noundef nonnull align 8 dereferenceable(41) %7, i24 %14) #9
  call void @llvm.lifetime.end.p0(i64 48, ptr %7) #9
  %15 = getelementptr inbounds nuw %"class.boost::urls::params_ref", ptr %10, i32 0, i32 1
  %16 = load ptr, ptr %6, align 8, !tbaa !7
  store ptr %16, ptr %15, align 8, !tbaa !103
  ret void
}

; Function Attrs: mustprogress nounwind uwtable
define void @_ZN5boost4urls8url_base6paramsEv(ptr dead_on_unwind noalias writable sret(%"class.boost::urls::params_ref") align 8 %0, ptr noundef nonnull align 8 dereferenceable(216) %1) #2 align 2 {
  %3 = alloca ptr, align 8
  %4 = alloca %"struct.boost::urls::encoding_opts", align 1
  %5 = alloca i24, align 4
  store ptr %1, ptr %3, align 8, !tbaa !7
  %6 = load ptr, ptr %3, align 8
  call void @_ZN5boost4urls13encoding_optsC1Ebbb(ptr noundef nonnull align 1 dereferenceable(3) %4, i1 noundef zeroext true, i1 noundef zeroext false, i1 noundef zeroext false) #9
  call void @llvm.memcpy.p0.p0.i64(ptr align 4 %5, ptr align 1 %4, i64 3, i1 false)
  %7 = load i24, ptr %5, align 4
  call void @_ZN5boost4urls10params_refC2ERNS0_8url_baseENS0_13encoding_optsE(ptr noundef nonnull align 8 dereferenceable(64) %0, ptr noundef nonnull align 8 dereferenceable(216) %6, i24 %7) #9
  ret void
}