; Function Attrs: mustprogress nounwind uwtable
define void @_ZN5boost4urls8url_base6paramsEv(ptr dead_on_unwind noalias writable sret(%"class.boost::urls::params_ref") align 8 %0, ptr noundef nonnull align 8 dereferenceable(216) %1) local_unnamed_addr #6 align 2 {
  %3 = alloca %"class.boost::urls::detail::query_ref", align 8
  %4 = alloca %"struct.boost::urls::encoding_opts", align 4
  call void @_ZN5boost4urls13encoding_optsC1Ebbb(ptr noundef nonnull align 1 dereferenceable(3) %4, i1 noundef zeroext true, i1 noundef zeroext false, i1 noundef zeroext false) #30
  %.0.copyload = load i24, ptr %4, align 4
  call void @llvm.lifetime.start.p0(i64 48, ptr nonnull %3) #30
  %5 = getelementptr inbounds i8, ptr %1, i64 16
  call void @_ZN5boost4urls6detail9query_refC1ERKNS1_8url_implE(ptr noundef nonnull align 8 dereferenceable(41) %3, ptr noundef nonnull align 8 dereferenceable(171) %5) #30
  call void @_ZN5boost4urls11params_baseC2ERKNS0_6detail9query_refENS0_13encoding_optsE(ptr noundef nonnull align 8 dereferenceable(64) %0, ptr noundef nonnull align 8 dereferenceable(41) %3, i24 %.0.copyload) #30
  call void @llvm.lifetime.end.p0(i64 48, ptr nonnull %3) #30
  %6 = getelementptr inbounds nuw i8, ptr %0, i64 56
  store ptr %1, ptr %6, align 8, !tbaa !157
  ret void
}